target datalayout = "e-m:e-p270:32:32-p271:32:32-p272:64:64-i64:64-i128:128-f80:128-n8:16:32:64-S128"
target triple = "x86_64-pc-linux-gnu"

%struct.X509_info_st = type { ptr, ptr, ptr, %struct.evp_cipher_info_st, i32, ptr }
%struct.evp_cipher_info_st = type { ptr, [16 x i8] }

@.str = private unnamed_addr constant [32 x i8] c"../openssl/crypto/asn1/x_info.c\00", align 1

; Function Attrs: nounwind uwtable
define ptr @X509_INFO_new() #0 {
  %1 = alloca ptr, align 8
  %2 = alloca ptr, align 8
  %3 = alloca i32, align 4
  call void @llvm.lifetime.start.p0(i64 8, ptr %2) #3
  %4 = call noalias ptr @CRYPTO_zalloc(i64 noundef 64, ptr noundef @.str, i32 noundef 20)
  store ptr %4, ptr %2, align 8, !tbaa !3
  %5 = load ptr, ptr %2, align 8, !tbaa !3
  %6 = icmp eq ptr %5, null
  br i1 %6, label %7, label %8

7:                                                ; preds = %0
  store ptr null, ptr %1, align 8
  store i32 1, ptr %3, align 4
  br label %10

8:                                                ; preds = %0
  %9 = load ptr, ptr %2, align 8, !tbaa !3
  store ptr %9, ptr %1, align 8
  store i32 1, ptr %3, align 4
  br label %10

10:                                               ; preds = %8, %7
  call void @llvm.lifetime.end.p0(i64 8, ptr %2) #3
  %11 = load ptr, ptr %1, align 8
  ret ptr %11
}

; Function Attrs: nocallback nofree nosync nounwind willreturn memory(argmem: readwrite)
declare void @llvm.lifetime.start.p0(i64 immarg, ptr captures(none)) #1

declare noalias ptr @CRYPTO_zalloc(i64 noundef, ptr noundef, i32 noundef) #2

; Function Attrs: nocallback nofree nosync nounwind willreturn memory(argmem: readwrite)
declare void @llvm.lifetime.end.p0(i64 immarg, ptr captures(none)) #1

; Function Attrs: nounwind uwtable
define void @X509_INFO_free(ptr noundef %0) #0 {
  %2 = alloca ptr, align 8
  store ptr %0, ptr %2, align 8, !tbaa !3
  %3 = load ptr, ptr %2, align 8, !tbaa !3
  %4 = icmp eq ptr %3, null
  br i1 %4, label %5, label %6

5:                                                ; preds = %1
  br label %20

6:                                                ; preds = %1
  %7 = load ptr, ptr %2, align 8, !tbaa !3
  %8 = getelementptr inbounds nuw %struct.X509_info_st, ptr %7, i32 0, i32 0
  %9 = load ptr, ptr %8, align 8, !tbaa !8
  call void @X509_free(ptr noundef %9)
  %10 = load ptr, ptr %2, align 8, !tbaa !3
  %11 = getelementptr inbounds nuw %struct.X509_info_st, ptr %10, i32 0, i32 1
  %12 = load ptr, ptr %11, align 8, !tbaa !17
  call void @X509_CRL_free(ptr noundef %12)
  %13 = load ptr, ptr %2, align 8, !tbaa !3
  %14 = getelementptr inbounds nuw %struct.X509_info_st, ptr %13, i32 0, i32 2
  %15 = load ptr, ptr %14, align 8, !tbaa !18
  call void @X509_PKEY_free(ptr noundef %15)
  %16 = load ptr, ptr %2, align 8, !tbaa !3
  %17 = getelementptr inbounds nuw %struct.X509_info_st, ptr %16, i32 0, i32 5
  %18 = load ptr, ptr %17, align 8, !tbaa !19
  call void @CRYPTO_free(ptr noundef %18, ptr noundef @.str, i32 noundef 35)
  %19 = load ptr, ptr %2, align 8, !tbaa !3
  call void @CRYPTO_free(ptr noundef %19, ptr noundef @.str, i32 noundef 36)
  br label %20

20:                                               ; preds = %6, %5
  ret void
}

declare void @X509_free(ptr noundef) #2

declare void @X509_CRL_free(ptr noundef) #2

declare void @X509_PKEY_free(ptr noundef) #2

declare void @CRYPTO_free(ptr noundef, ptr noundef, i32 noundef) #2


!llvm.module.flags = !{!0, !1, !2}

!0 = !{i32 1, !"wchar_size", i32 4}
!1 = !{i32 8, !"PIC Level", i32 2}
!2 = !{i32 7, !"uwtable", i32 2}
!3 = !{!4, !4, i64 0}
!4 = !{!"p1 _ZTS12X509_info_st", !5, i64 0}
!5 = !{!"any pointer", !6, i64 0}
!6 = !{!"omnipotent char", !7, i64 0}
!7 = !{!"Simple C/C++ TBAA"}
!8 = !{!9, !10, i64 0}
!9 = !{!"X509_info_st", !10, i64 0, !11, i64 8, !12, i64 16, !13, i64 24, !15, i64 48, !16, i64 56}
!10 = !{!"p1 _ZTS7x509_st", !5, i64 0}
!11 = !{!"p1 _ZTS11X509_crl_st", !5, i64 0}
!12 = !{!"p1 _ZTS14private_key_st", !5, i64 0}
!13 = !{!"evp_cipher_info_st", !14, i64 0, !6, i64 8}
!14 = !{!"p1 _ZTS13evp_cipher_st", !5, i64 0}
!15 = !{!"int", !6, i64 0}
!16 = !{!"p1 omnipotent char", !5, i64 0}
!17 = !{!9, !11, i64 8}
!18 = !{!9, !12, i64 16}
!19 = !{!9, !16, i64 56}
